; Function Attrs: mustprogress nounwind uwtable
define dso_local noundef ptr @LLVMBuildMemSet(ptr noundef nonnull %0, ptr noundef %1, ptr noundef %2, ptr noundef %3, i32 noundef %4) local_unnamed_addr #0 {
_ZN4llvm10MaybeAlignC2Em.exit:
  %5 = zext i32 %4 to i64
  %.not.i.not = icmp eq i32 %4, 0
  %6 = tail call range(i64 0, 65) i64 @llvm.ctlz.i64(i64 %5, i1 true)
  %7 = trunc nuw nsw i64 %6 to i16
  %8 = xor i16 %7, 319
  %.sroa.0.0.insert.insert = select i1 %.not.i.not, i16 0, i16 %8
  %9 = tail call noundef ptr @_ZN4llvm13IRBuilderBase12CreateMemSetEPNS_5ValueES2_S2_NS_10MaybeAlignEbPNS_6MDNodeES5_S5_(ptr noundef nonnull align 8 dereferenceable(128) %0, ptr noundef %1, ptr noundef %2, ptr noundef %3, i16 %.sroa.0.0.insert.insert, i1 noundef zeroext false, ptr noundef null, ptr noundef null, ptr noundef null) #35
  ret ptr %9
}